; Function Attrs: mustprogress nounwind uwtable
define hidden void @_ZN9Assembler4cmpbE8Register7Address(ptr nocapture noundef nonnull readonly align 8 dereferenceable(40) %0, i32 %1, ptr noundef %2) local_unnamed_addr #0 align 2 {
  %4 = alloca %class.Address, align 8
  %5 = alloca %class.Address, align 8
  %6 = getelementptr inbounds i8, ptr %0, i64 8
  %7 = load ptr, ptr %6, align 8
  %8 = getelementptr inbounds i8, ptr %7, i64 16
  %9 = load ptr, ptr %8, align 8
  %10 = getelementptr inbounds i8, ptr %7, i64 8
  store ptr %9, ptr %10, align 8
  call void @llvm.memcpy.p0.p0.i64(ptr noundef nonnull align 8 dereferenceable(21) %4, ptr noundef nonnull align 8 dereferenceable(21) %2, i64 21, i1 false)
  %11 = getelementptr inbounds i8, ptr %4, i64 24
  %12 = getelementptr inbounds i8, ptr %2, i64 24
  %13 = load ptr, ptr %12, align 8
  %14 = getelementptr inbounds i8, ptr %13, i64 16
  %15 = load ptr, ptr %14, align 8
  call void %15(ptr noundef nonnull align 8 dereferenceable(20) %12, ptr noundef nonnull align 8 dereferenceable(40) %11) #18
  call void @_ZN9Assembler6prefixE7Address8Registerbb(ptr noundef nonnull align 8 dereferenceable(40) %0, ptr noundef nonnull %4, i32 %1, i1 noundef zeroext true, i1 noundef zeroext false)
  %16 = load ptr, ptr %6, align 8
  %17 = getelementptr inbounds i8, ptr %16, i64 16
  %18 = load ptr, ptr %17, align 8
  %19 = getelementptr inbounds i8, ptr %18, i64 1
  store i8 58, ptr %18, align 1
  store ptr %19, ptr %17, align 8
  call void @llvm.memcpy.p0.p0.i64(ptr noundef nonnull align 8 dereferenceable(21) %5, ptr noundef nonnull align 8 dereferenceable(21) %2, i64 21, i1 false)
  %20 = getelementptr inbounds i8, ptr %5, i64 24
  %21 = load ptr, ptr %12, align 8
  %22 = getelementptr inbounds i8, ptr %21, i64 16
  %23 = load ptr, ptr %22, align 8
  call void %23(ptr noundef nonnull align 8 dereferenceable(20) %12, ptr noundef nonnull align 8 dereferenceable(40) %20) #18
  %.sroa.01.0.copyload.i = load i32, ptr %5, align 8
  %24 = getelementptr inbounds i8, ptr %5, i64 4
  %.sroa.0.0.copyload.i = load i32, ptr %24, align 4
  %25 = getelementptr inbounds i8, ptr %5, i64 12
  %26 = load i32, ptr %25, align 4
  %27 = getelementptr inbounds i8, ptr %5, i64 16
  %28 = load i32, ptr %27, align 8
  %29 = sext i32 %1 to i64
  %30 = getelementptr inbounds %"class.Register::RegisterImpl", ptr getelementptr inbounds (i8, ptr @all_RegisterImpls, i64 1), i64 %29
  %31 = ptrtoint ptr %30 to i64
  %32 = trunc i64 %31 to i32
  %33 = sub i32 %32, ptrtoint (ptr getelementptr inbounds (i8, ptr @all_RegisterImpls, i64 1) to i32)
  %34 = sext i32 %.sroa.01.0.copyload.i to i64
  %35 = getelementptr inbounds %"class.Register::RegisterImpl", ptr getelementptr inbounds (i8, ptr @all_RegisterImpls, i64 1), i64 %34
  %36 = ptrtoint ptr %35 to i64
  %37 = trunc i64 %36 to i32
  %38 = sub i32 %37, ptrtoint (ptr getelementptr inbounds (i8, ptr @all_RegisterImpls, i64 1) to i32)
  %39 = sext i32 %.sroa.0.0.copyload.i to i64
  %40 = getelementptr inbounds %"class.Register::RegisterImpl", ptr getelementptr inbounds (i8, ptr @all_RegisterImpls, i64 1), i64 %39
  %41 = ptrtoint ptr %40 to i64
  %42 = trunc i64 %41 to i32
  %43 = sub i32 %42, ptrtoint (ptr getelementptr inbounds (i8, ptr @all_RegisterImpls, i64 1) to i32)
  call void @_ZN9Assembler19emit_operand_helperEiiiN7Address11ScaleFactorEiRK16RelocationHolderi(ptr noundef nonnull readonly align 8 dereferenceable(40) %0, i32 noundef %33, i32 noundef %38, i32 noundef %43, i32 noundef %26, i32 noundef %28, ptr noundef nonnull align 8 dereferenceable(40) %20, i32 noundef 0)
  %44 = load ptr, ptr %6, align 8
  %45 = getelementptr inbounds i8, ptr %44, i64 8
  store ptr null, ptr %45, align 8
  ret void
}